target datalayout = "e-m:e-p270:32:32-p271:32:32-p272:64:64-i64:64-i128:128-f80:128-n8:16:32:64-S128"
target triple = "x86_64-pc-linux-gnu"

%"struct.pybind11::detail::internals" = type { %"class.std::unordered_map", %"class.std::unordered_map.22", %"class.std::unordered_multimap", %"class.std::unordered_set", %"class.std::unordered_map.77", %"class.std::unordered_map.91", %"class.std::forward_list", %"class.std::unordered_map.114", %"class.std::vector", %"class.std::forward_list.137", ptr, ptr, ptr, ptr, ptr }
%"class.std::unordered_map" = type { %"class.std::_Hashtable" }
%"class.std::_Hashtable" = type { ptr, i64, %"struct.std::__detail::_Hash_node_base", i64, %"struct.std::__detail::_Prime_rehash_policy", ptr }
%"struct.std::__detail::_Hash_node_base" = type { ptr }
%"struct.std::__detail::_Prime_rehash_policy" = type { float, i64 }
%"class.std::unordered_map.22" = type { %"class.std::_Hashtable.23" }
%"class.std::_Hashtable.23" = type { ptr, i64, %"struct.std::__detail::_Hash_node_base", i64, %"struct.std::__detail::_Prime_rehash_policy", ptr }
%"class.std::unordered_multimap" = type { %"class.std::_Hashtable.41" }
%"class.std::_Hashtable.41" = type { ptr, i64, %"struct.std::__detail::_Hash_node_base", i64, %"struct.std::__detail::_Prime_rehash_policy", ptr }
%"class.std::unordered_set" = type { %"class.std::_Hashtable.60" }
%"class.std::_Hashtable.60" = type { ptr, i64, %"struct.std::__detail::_Hash_node_base", i64, %"struct.std::__detail::_Prime_rehash_policy", ptr }
%"class.std::unordered_map.77" = type { %"class.std::_Hashtable.78" }
%"class.std::_Hashtable.78" = type { ptr, i64, %"struct.std::__detail::_Hash_node_base", i64, %"struct.std::__detail::_Prime_rehash_policy", ptr }
%"class.std::unordered_map.91" = type { %"class.std::_Hashtable.92" }
%"class.std::_Hashtable.92" = type { ptr, i64, %"struct.std::__detail::_Hash_node_base", i64, %"struct.std::__detail::_Prime_rehash_policy", ptr }
%"class.std::forward_list" = type { %"struct.std::_Fwd_list_base" }
%"struct.std::_Fwd_list_base" = type { %"struct.std::_Fwd_list_base<void (*)(std::__exception_ptr::exception_ptr), std::allocator<void (*)(std::__exception_ptr::exception_ptr)>>::_Fwd_list_impl" }
%"struct.std::_Fwd_list_base<void (*)(std::__exception_ptr::exception_ptr), std::allocator<void (*)(std::__exception_ptr::exception_ptr)>>::_Fwd_list_impl" = type { %"struct.std::_Fwd_list_node_base" }
%"struct.std::_Fwd_list_node_base" = type { ptr }
%"class.std::unordered_map.114" = type { %"class.std::_Hashtable.115" }
%"class.std::_Hashtable.115" = type { ptr, i64, %"struct.std::__detail::_Hash_node_base", i64, %"struct.std::__detail::_Prime_rehash_policy", ptr }
%"class.std::vector" = type { %"struct.std::_Vector_base" }
%"struct.std::_Vector_base" = type { %"struct.std::_Vector_base<_object *, std::allocator<_object *>>::_Vector_impl" }
%"struct.std::_Vector_base<_object *, std::allocator<_object *>>::_Vector_impl" = type { %"struct.std::_Vector_base<_object *, std::allocator<_object *>>::_Vector_impl_data" }
%"struct.std::_Vector_base<_object *, std::allocator<_object *>>::_Vector_impl_data" = type { ptr, ptr, ptr }
%"class.std::forward_list.137" = type { %"struct.std::_Fwd_list_base.138" }
%"struct.std::_Fwd_list_base.138" = type { %"struct.std::_Fwd_list_base<std::__cxx11::basic_string<char>, std::allocator<std::__cxx11::basic_string<char>>>::_Fwd_list_impl" }
%"struct.std::_Fwd_list_base<std::__cxx11::basic_string<char>, std::allocator<std::__cxx11::basic_string<char>>>::_Fwd_list_impl" = type { %"struct.std::_Fwd_list_node_base" }
%"class.pybind11::gil_scoped_release" = type <{ ptr, i8, i8, [6 x i8] }>

@.str.175 = private unnamed_addr constant [9 x i8] c"GIL held\00", align 1
@.str.176 = private unnamed_addr constant [13 x i8] c"GIL released\00", align 1

; Function Attrs: mustprogress uwtable
define linkonce_odr hidden noundef ptr @_ZN8pybind116detail26get_thread_state_uncheckedEv() #1 comdat {
  %1 = call ptr @_PyThreadState_UncheckedGet()
  ret ptr %1
}

; Function Attrs: mustprogress uwtable
define internal noundef ptr @"_ZZ28test_submodule_call_policiesRN8pybind117module_EENK3$_5clEv"(ptr noundef nonnull align 1 dereferenceable(1) %0) #1 align 2 {
  %2 = alloca ptr, align 8
  %3 = alloca i8, align 1
  %4 = alloca ptr, align 8
  store ptr %0, ptr %2, align 8
  store i8 0, ptr %3, align 1
  %5 = call noundef ptr @_ZN8pybind116detail26get_thread_state_uncheckedEv()
  store ptr %5, ptr %4, align 8
  %6 = load ptr, ptr %4, align 8
  %7 = icmp ne ptr %6, null
  br i1 %7, label %8, label %13

8:                                                ; preds = %1
  %9 = load ptr, ptr %4, align 8
  %10 = call ptr @PyGILState_GetThisThreadState()
  %11 = icmp eq ptr %9, %10
  %12 = zext i1 %11 to i8
  store i8 %12, ptr %3, align 1
  br label %13

13:                                               ; preds = %8, %1
  %14 = load i8, ptr %3, align 1
  %15 = trunc i8 %14 to i1
  %16 = select i1 %15, ptr @.str.175, ptr @.str.176
  ret ptr %16
}

; Function Attrs: mustprogress uwtable
define internal noundef ptr @"_ZNO8pybind116detail15argument_loaderIJEE9call_implIPKcRZ28test_submodule_call_policiesRNS_7module_EE3$_5TpTnmJENS_18gil_scoped_releaseEEET_OT0_St16integer_sequenceImJXspT1_EEEOT2_"(ptr noundef nonnull align 1 dereferenceable(1) %0, ptr noundef nonnull align 1 dereferenceable(1) %1, ptr noundef nonnull align 8 dereferenceable(10) %2) #1 align 2 {
  %4 = alloca ptr, align 8
  %5 = alloca ptr, align 8
  %6 = alloca ptr, align 8
  store ptr %0, ptr %4, align 8
  store ptr %1, ptr %5, align 8
  store ptr %2, ptr %6, align 8
  %7 = load ptr, ptr %5, align 8
  %8 = call noundef ptr @"_ZZ28test_submodule_call_policiesRN8pybind117module_EENK3$_5clEv"(ptr noundef nonnull align 1 dereferenceable(1) %7)
  ret ptr %8
}

; Function Attrs: mustprogress uwtable
define linkonce_odr hidden void @_ZN8pybind1118gil_scoped_releaseC2Eb(ptr noundef nonnull align 8 dereferenceable(10) %0, i1 noundef zeroext %1) unnamed_addr #1 comdat align 2 {
  %3 = alloca ptr, align 8
  %4 = alloca i8, align 1
  %5 = alloca ptr, align 8
  %6 = alloca ptr, align 8
  store ptr %0, ptr %3, align 8
  %7 = zext i1 %1 to i8
  store i8 %7, ptr %4, align 1
  %8 = load ptr, ptr %3, align 8
  %9 = getelementptr inbounds %"class.pybind11::gil_scoped_release", ptr %8, i32 0, i32 1
  %10 = load i8, ptr %4, align 1
  %11 = trunc i8 %10 to i1
  %12 = zext i1 %11 to i8
  store i8 %12, ptr %9, align 8
  %13 = getelementptr inbounds %"class.pybind11::gil_scoped_release", ptr %8, i32 0, i32 2
  store i8 1, ptr %13, align 1
  %14 = call noundef nonnull align 8 dereferenceable(472) ptr @_ZN8pybind116detail13get_internalsEv()
  store ptr %14, ptr %5, align 8
  %15 = call ptr @PyEval_SaveThread()
  %16 = getelementptr inbounds %"class.pybind11::gil_scoped_release", ptr %8, i32 0, i32 0
  store ptr %15, ptr %16, align 8
  %17 = load i8, ptr %4, align 1
  %18 = trunc i8 %17 to i1
  br i1 %18, label %19, label %25

19:                                               ; preds = %2
  %20 = load ptr, ptr %5, align 8
  %21 = getelementptr inbounds %"struct.pybind11::detail::internals", ptr %20, i32 0, i32 13
  %22 = load ptr, ptr %21, align 8
  store ptr %22, ptr %6, align 8
  %23 = load ptr, ptr %6, align 8
  %24 = call i32 @PyThread_tss_set(ptr noundef %23, ptr noundef null)
  br label %25

25:                                               ; preds = %19, %2
  ret void
}

; Function Attrs: mustprogress uwtable
define internal noundef ptr @"_ZNO8pybind116detail15argument_loaderIJEE4callIPKcNS_18gil_scoped_releaseERZ28test_submodule_call_policiesRNS_7module_EE3$_5EENSt9enable_ifIXntsr3std7is_voidIT_EE5valueESC_E4typeEOT1_"(ptr noundef nonnull align 1 dereferenceable(1) %0, ptr noundef nonnull align 1 dereferenceable(1) %1) #1 align 2 personality ptr @__gxx_personality_v0 {
  %3 = alloca ptr, align 8
  %4 = alloca ptr, align 8
  %5 = alloca %"class.pybind11::gil_scoped_release", align 8
  %6 = alloca ptr, align 8
  %7 = alloca i32, align 4
  store ptr %0, ptr %3, align 8
  store ptr %1, ptr %4, align 8
  %8 = load ptr, ptr %3, align 8
  %9 = load ptr, ptr %4, align 8
  call void @_ZN8pybind1118gil_scoped_releaseC2Eb(ptr noundef nonnull align 8 dereferenceable(10) %5, i1 noundef zeroext false)
  %10 = invoke noundef ptr @"_ZNO8pybind116detail15argument_loaderIJEE9call_implIPKcRZ28test_submodule_call_policiesRNS_7module_EE3$_5TpTnmJENS_18gil_scoped_releaseEEET_OT0_St16integer_sequenceImJXspT1_EEEOT2_"(ptr noundef nonnull align 1 dereferenceable(1) %8, ptr noundef nonnull align 1 dereferenceable(1) %9, ptr noundef nonnull align 8 dereferenceable(10) %5)
          to label %11 unwind label %12

11:                                               ; preds = %2
  call void @_ZN8pybind1118gil_scoped_releaseD2Ev(ptr noundef nonnull align 8 dereferenceable(10) %5) #16
  ret ptr %10

12:                                               ; preds = %2
  %13 = landingpad { ptr, i32 }
          cleanup
  %14 = extractvalue { ptr, i32 } %13, 0
  store ptr %14, ptr %6, align 8
  %15 = extractvalue { ptr, i32 } %13, 1
  store i32 %15, ptr %7, align 4
  call void @_ZN8pybind1118gil_scoped_releaseD2Ev(ptr noundef nonnull align 8 dereferenceable(10) %5) #16
  br label %16

16:                                               ; preds = %12
  %17 = load ptr, ptr %6, align 8
  %18 = load i32, ptr %7, align 4
  %19 = insertvalue { ptr, i32 } poison, ptr %17, 0
  %20 = insertvalue { ptr, i32 } %19, i32 %18, 1
  resume { ptr, i32 } %20
}