; Function Attrs: mustprogress uwtable
define internal fastcc noundef nonnull ptr @"_ZNO8pybind116detail15argument_loaderIJEE4callIPKcNS_18gil_scoped_releaseERZ28test_submodule_call_policiesRNS_7module_EE3$_5EENSt9enable_ifIXntsr3std7is_voidIT_EE5valueESC_E4typeEOT1_"() unnamed_addr #1 align 2 personality ptr @__gxx_personality_v0 {
  %1 = alloca %"class.pybind11::gil_scoped_release", align 8
  %2 = getelementptr inbounds i8, ptr %1, i64 8
  store i8 0, ptr %2, align 8
  %3 = getelementptr inbounds i8, ptr %1, i64 9
  store i8 1, ptr %3, align 1
  %4 = tail call noundef nonnull align 8 dereferenceable(472) ptr @_ZN8pybind116detail13get_internalsEv()
  %5 = tail call ptr @PyEval_SaveThread()
  store ptr %5, ptr %1, align 8
  %6 = invoke noundef ptr @_PyThreadState_UncheckedGet()
          to label %.noexc unwind label %15

.noexc:                                           ; preds = %0
  %.not.i.i = icmp eq ptr %6, null
  br i1 %.not.i.i, label %"_ZNO8pybind116detail15argument_loaderIJEE9call_implIPKcRZ28test_submodule_call_policiesRNS_7module_EE3$_5TpTnmJENS_18gil_scoped_releaseEEET_OT0_St16integer_sequenceImJXspT1_EEEOT2_.exit", label %7

7:                                                ; preds = %.noexc
  %8 = invoke ptr @PyGILState_GetThisThreadState()
          to label %.noexc3 unwind label %15

.noexc3:                                          ; preds = %7
  %9 = icmp eq ptr %6, %8
  %10 = select i1 %9, ptr @.str.175, ptr @.str.176
  br label %"_ZNO8pybind116detail15argument_loaderIJEE9call_implIPKcRZ28test_submodule_call_policiesRNS_7module_EE3$_5TpTnmJENS_18gil_scoped_releaseEEET_OT0_St16integer_sequenceImJXspT1_EEEOT2_.exit"

"_ZNO8pybind116detail15argument_loaderIJEE9call_implIPKcRZ28test_submodule_call_policiesRNS_7module_EE3$_5TpTnmJENS_18gil_scoped_releaseEEET_OT0_St16integer_sequenceImJXspT1_EEEOT2_.exit": ; preds = %.noexc3, %.noexc
  %.0.i.i = phi ptr [ %10, %.noexc3 ], [ @.str.176, %.noexc ]
  %.not.i = icmp eq ptr %5, null
  br i1 %.not.i, label %_ZN8pybind1118gil_scoped_releaseD2Ev.exit, label %11

11:                                               ; preds = %"_ZNO8pybind116detail15argument_loaderIJEE9call_implIPKcRZ28test_submodule_call_policiesRNS_7module_EE3$_5TpTnmJENS_18gil_scoped_releaseEEET_OT0_St16integer_sequenceImJXspT1_EEEOT2_.exit"
  invoke void @PyEval_RestoreThread(ptr noundef nonnull %5)
          to label %_ZN8pybind1118gil_scoped_releaseD2Ev.exit unwind label %12

12:                                               ; preds = %11
  %13 = landingpad { ptr, i32 }
          catch ptr null
  %14 = extractvalue { ptr, i32 } %13, 0
  tail call void @__clang_call_terminate(ptr %14) #25
  unreachable

_ZN8pybind1118gil_scoped_releaseD2Ev.exit:        ; preds = %11, %"_ZNO8pybind116detail15argument_loaderIJEE9call_implIPKcRZ28test_submodule_call_policiesRNS_7module_EE3$_5TpTnmJENS_18gil_scoped_releaseEEET_OT0_St16integer_sequenceImJXspT1_EEEOT2_.exit"
  ret ptr %.0.i.i

15:                                               ; preds = %7, %0
  %16 = landingpad { ptr, i32 }
          cleanup
  call void @_ZN8pybind1118gil_scoped_releaseD2Ev(ptr noundef nonnull align 8 dereferenceable(10) %1) #24
  resume { ptr, i32 } %16
}